target datalayout = "e-m:e-p270:32:32-p271:32:32-p272:64:64-i64:64-i128:128-f80:128-n8:16:32:64-S128"
target triple = "x86_64-pc-linux-gnu"

%class.params_ref = type { ptr }

@.str = private unnamed_addr constant [8 x i8] c"qi.cost\00", align 1
@.str.1 = private unnamed_addr constant [2 x i8] c"0\00", align 1

; Function Attrs: mustprogress uwtable
define internal noundef ptr @_ZL27mk_no_solve_eq_preprocessorR11ast_manager(ptr noundef nonnull align 8 dereferenceable(976) %0) #4 {
  %2 = alloca ptr, align 8
  store ptr %0, ptr %2, align 8, !tbaa !3
  %3 = load ptr, ptr %2, align 8, !tbaa !3
  %4 = call noundef ptr @_ZL21mk_quant_preprocessorR11ast_managerb(ptr noundef nonnull align 8 dereferenceable(976) %3, i1 noundef zeroext true)
  ret ptr %4
}

; Function Attrs: mustprogress nounwind uwtable
define linkonce_odr hidden void @_ZN10params_refC2Ev(ptr noundef nonnull align 8 dereferenceable(8) %0) unnamed_addr #7 comdat align 2 {
  %2 = alloca ptr, align 8
  store ptr %0, ptr %2, align 8, !tbaa !8
  %3 = load ptr, ptr %2, align 8
  %4 = getelementptr inbounds nuw %class.params_ref, ptr %3, i32 0, i32 0
  store ptr null, ptr %4, align 8, !tbaa !14
  ret void
}

; Function Attrs: mustprogress uwtable
define hidden noundef ptr @_Z16mk_auflia_tacticR11ast_managerRK10params_ref(ptr noundef nonnull align 8 dereferenceable(976) %0, ptr noundef nonnull align 8 dereferenceable(8) %1) #4 personality ptr @__gxx_personality_v0 {
  %3 = alloca ptr, align 8
  %4 = alloca ptr, align 8
  %5 = alloca %class.params_ref, align 8
  %6 = alloca ptr, align 8
  %7 = alloca i32, align 4
  %8 = alloca ptr, align 8
  %9 = alloca %class.params_ref, align 8
  %10 = alloca %class.params_ref, align 8
  store ptr %0, ptr %3, align 8, !tbaa !3
  store ptr %1, ptr %4, align 8, !tbaa !8
  call void @llvm.lifetime.start.p0(i64 8, ptr %5) #3
  call void @_ZN10params_refC2Ev(ptr noundef nonnull align 8 dereferenceable(8) %5) #3
  invoke void @_ZN10params_ref7set_strEPKcS1_(ptr noundef nonnull align 8 dereferenceable(8) %5, ptr noundef @.str, ptr noundef @.str.1)
          to label %11 unwind label %46

11:                                               ; preds = %2
  call void @llvm.lifetime.start.p0(i64 8, ptr %8) #3
  %12 = load ptr, ptr %3, align 8, !tbaa !3
  %13 = invoke noundef ptr @_ZL27mk_no_solve_eq_preprocessorR11ast_manager(ptr noundef nonnull align 8 dereferenceable(976) %12)
          to label %14 unwind label %50

14:                                               ; preds = %11
  %15 = invoke noundef ptr @_Z18mk_num_exprs_probev()
          to label %16 unwind label %50

16:                                               ; preds = %14
  %17 = invoke noundef ptr @_Z14mk_const_probed(double noundef 1.280000e+02)
          to label %18 unwind label %50

18:                                               ; preds = %16
  %19 = invoke noundef ptr @_Z5mk_gtP5probeS0_(ptr noundef %15, ptr noundef %17)
          to label %20 unwind label %50

20:                                               ; preds = %18
  %21 = invoke noundef ptr @_Z7fail_ifP5probe(ptr noundef %19)
          to label %22 unwind label %50

22:                                               ; preds = %20
  %23 = load ptr, ptr %3, align 8, !tbaa !3
  call void @llvm.lifetime.start.p0(i64 8, ptr %9) #3
  call void @llvm.memset.p0.i64(ptr align 8 %9, i8 0, i64 8, i1 false)
  call void @_ZN10params_refC2Ev(ptr noundef nonnull align 8 dereferenceable(8) %9) #3
  %24 = invoke noundef ptr @_Z13mk_smt_tacticR11ast_managerRK10params_ref(ptr noundef nonnull align 8 dereferenceable(976) %23, ptr noundef nonnull align 8 dereferenceable(8) %9)
          to label %25 unwind label %54

25:                                               ; preds = %22
  %26 = invoke noundef ptr @_Z12using_paramsP6tacticRK10params_ref(ptr noundef %24, ptr noundef nonnull align 8 dereferenceable(8) %5)
          to label %27 unwind label %54

27:                                               ; preds = %25
  %28 = invoke noundef ptr @_Z27mk_fail_if_undecided_tacticv()
          to label %29 unwind label %54

29:                                               ; preds = %27
  %30 = invoke noundef ptr @_Z8and_thenP6tacticS0_S0_(ptr noundef %21, ptr noundef %26, ptr noundef %28)
          to label %31 unwind label %54

31:                                               ; preds = %29
  %32 = load ptr, ptr %3, align 8, !tbaa !3
  call void @llvm.lifetime.start.p0(i64 8, ptr %10) #3
  call void @llvm.memset.p0.i64(ptr align 8 %10, i8 0, i64 8, i1 false)
  call void @_ZN10params_refC2Ev(ptr noundef nonnull align 8 dereferenceable(8) %10) #3
  %33 = invoke noundef ptr @_Z13mk_smt_tacticR11ast_managerRK10params_ref(ptr noundef nonnull align 8 dereferenceable(976) %32, ptr noundef nonnull align 8 dereferenceable(8) %10)
          to label %34 unwind label %58

34:                                               ; preds = %31
  %35 = invoke noundef ptr @_Z7or_elseP6tacticS0_(ptr noundef %30, ptr noundef %33)
          to label %36 unwind label %58

36:                                               ; preds = %34
  %37 = invoke noundef ptr @_Z8and_thenP6tacticS0_(ptr noundef %13, ptr noundef %35)
          to label %38 unwind label %58

38:                                               ; preds = %36
  call void @_ZN10params_refD1Ev(ptr noundef nonnull align 8 dereferenceable(8) %10) #3
  call void @llvm.lifetime.end.p0(i64 8, ptr %10) #3
  call void @_ZN10params_refD1Ev(ptr noundef nonnull align 8 dereferenceable(8) %9) #3
  call void @llvm.lifetime.end.p0(i64 8, ptr %9) #3
  store ptr %37, ptr %8, align 8, !tbaa !10
  %39 = load ptr, ptr %8, align 8, !tbaa !10
  %40 = load ptr, ptr %4, align 8, !tbaa !8
  %41 = load ptr, ptr %39, align 8, !tbaa !12
  %42 = getelementptr inbounds ptr, ptr %41, i64 13
  %43 = load ptr, ptr %42, align 8
  invoke void %43(ptr noundef nonnull align 8 dereferenceable(12) %39, ptr noundef nonnull align 8 dereferenceable(8) %40)
          to label %44 unwind label %50

44:                                               ; preds = %38
  %45 = load ptr, ptr %8, align 8, !tbaa !10
  call void @llvm.lifetime.end.p0(i64 8, ptr %8) #3
  call void @_ZN10params_refD1Ev(ptr noundef nonnull align 8 dereferenceable(8) %5) #3
  call void @llvm.lifetime.end.p0(i64 8, ptr %5) #3
  ret ptr %45

46:                                               ; preds = %2
  %47 = landingpad { ptr, i32 }
          cleanup
  %48 = extractvalue { ptr, i32 } %47, 0
  store ptr %48, ptr %6, align 8
  %49 = extractvalue { ptr, i32 } %47, 1
  store i32 %49, ptr %7, align 4
  br label %64

50:                                               ; preds = %38, %20, %18, %16, %14, %11
  %51 = landingpad { ptr, i32 }
          cleanup
  %52 = extractvalue { ptr, i32 } %51, 0
  store ptr %52, ptr %6, align 8
  %53 = extractvalue { ptr, i32 } %51, 1
  store i32 %53, ptr %7, align 4
  br label %63

54:                                               ; preds = %29, %27, %25, %22
  %55 = landingpad { ptr, i32 }
          cleanup
  %56 = extractvalue { ptr, i32 } %55, 0
  store ptr %56, ptr %6, align 8
  %57 = extractvalue { ptr, i32 } %55, 1
  store i32 %57, ptr %7, align 4
  br label %62

58:                                               ; preds = %36, %34, %31
  %59 = landingpad { ptr, i32 }
          cleanup
  %60 = extractvalue { ptr, i32 } %59, 0
  store ptr %60, ptr %6, align 8
  %61 = extractvalue { ptr, i32 } %59, 1
  store i32 %61, ptr %7, align 4
  call void @_ZN10params_refD1Ev(ptr noundef nonnull align 8 dereferenceable(8) %10) #3
  call void @llvm.lifetime.end.p0(i64 8, ptr %10) #3
  br label %62

62:                                               ; preds = %58, %54
  call void @_ZN10params_refD1Ev(ptr noundef nonnull align 8 dereferenceable(8) %9) #3
  call void @llvm.lifetime.end.p0(i64 8, ptr %9) #3
  br label %63

63:                                               ; preds = %62, %50
  call void @llvm.lifetime.end.p0(i64 8, ptr %8) #3
  br label %64

64:                                               ; preds = %63, %46
  call void @_ZN10params_refD1Ev(ptr noundef nonnull align 8 dereferenceable(8) %5) #3
  call void @llvm.lifetime.end.p0(i64 8, ptr %5) #3
  br label %65

65:                                               ; preds = %64
  %66 = load ptr, ptr %6, align 8
  %67 = load i32, ptr %7, align 4
  %68 = insertvalue { ptr, i32 } poison, ptr %66, 0
  %69 = insertvalue { ptr, i32 } %68, i32 %67, 1
  resume { ptr, i32 } %69
}