; Function Attrs: mustprogress uwtable
define hidden noundef ptr @_Z16mk_auflia_tacticR11ast_managerRK10params_ref(ptr noundef nonnull align 8 dereferenceable(976) %0, ptr noundef nonnull align 8 dereferenceable(8) %1) local_unnamed_addr #3 personality ptr @__gxx_personality_v0 {
  %3 = alloca %class.params_ref, align 8
  %4 = alloca %class.params_ref, align 8
  %5 = alloca %class.params_ref, align 8
  call void @llvm.lifetime.start.p0(i64 8, ptr nonnull %3) #22
  store ptr null, ptr %3, align 8, !tbaa !3
  invoke void @_ZN10params_ref7set_strEPKcS1_(ptr noundef nonnull align 8 dereferenceable(8) %3, ptr noundef nonnull @.str, ptr noundef nonnull @.str.1)
          to label %6 unwind label %34

6:                                                ; preds = %2
  %7 = invoke fastcc noundef ptr @_ZL21mk_quant_preprocessorR11ast_managerb(ptr noundef nonnull align 8 dereferenceable(976) %0, i1 noundef zeroext true)
          to label %_ZL27mk_no_solve_eq_preprocessorR11ast_manager.exit unwind label %36

_ZL27mk_no_solve_eq_preprocessorR11ast_manager.exit: ; preds = %6
  %8 = invoke noundef ptr @_Z18mk_num_exprs_probev()
          to label %9 unwind label %36

9:                                                ; preds = %_ZL27mk_no_solve_eq_preprocessorR11ast_manager.exit
  %10 = invoke noundef ptr @_Z14mk_const_probed(double noundef 1.280000e+02)
          to label %11 unwind label %36

11:                                               ; preds = %9
  %12 = invoke noundef ptr @_Z5mk_gtP5probeS0_(ptr noundef %8, ptr noundef %10)
          to label %13 unwind label %36

13:                                               ; preds = %11
  %14 = invoke noundef ptr @_Z7fail_ifP5probe(ptr noundef %12)
          to label %15 unwind label %36

15:                                               ; preds = %13
  call void @llvm.lifetime.start.p0(i64 8, ptr nonnull %4) #22
  store ptr null, ptr %4, align 8, !tbaa !3
  %16 = invoke noundef ptr @_Z13mk_smt_tacticR11ast_managerRK10params_ref(ptr noundef nonnull align 8 dereferenceable(976) %0, ptr noundef nonnull align 8 dereferenceable(8) %4)
          to label %17 unwind label %38

17:                                               ; preds = %15
  %18 = invoke noundef ptr @_Z12using_paramsP6tacticRK10params_ref(ptr noundef %16, ptr noundef nonnull align 8 dereferenceable(8) %3)
          to label %19 unwind label %38

19:                                               ; preds = %17
  %20 = invoke noundef ptr @_Z27mk_fail_if_undecided_tacticv()
          to label %21 unwind label %38

21:                                               ; preds = %19
  %22 = invoke noundef ptr @_Z8and_thenP6tacticS0_S0_(ptr noundef %14, ptr noundef %18, ptr noundef %20)
          to label %23 unwind label %38

23:                                               ; preds = %21
  call void @llvm.lifetime.start.p0(i64 8, ptr nonnull %5) #22
  store ptr null, ptr %5, align 8, !tbaa !3
  %24 = invoke noundef ptr @_Z13mk_smt_tacticR11ast_managerRK10params_ref(ptr noundef nonnull align 8 dereferenceable(976) %0, ptr noundef nonnull align 8 dereferenceable(8) %5)
          to label %25 unwind label %40

25:                                               ; preds = %23
  %26 = invoke noundef ptr @_Z7or_elseP6tacticS0_(ptr noundef %22, ptr noundef %24)
          to label %27 unwind label %40

27:                                               ; preds = %25
  %28 = invoke noundef ptr @_Z8and_thenP6tacticS0_(ptr noundef %7, ptr noundef %26)
          to label %29 unwind label %40

29:                                               ; preds = %27
  call void @_ZN10params_refD1Ev(ptr noundef nonnull align 8 dereferenceable(8) %5) #22
  call void @llvm.lifetime.end.p0(i64 8, ptr nonnull %5) #22
  call void @_ZN10params_refD1Ev(ptr noundef nonnull align 8 dereferenceable(8) %4) #22
  call void @llvm.lifetime.end.p0(i64 8, ptr nonnull %4) #22
  %30 = load ptr, ptr %28, align 8, !tbaa !9
  %31 = getelementptr inbounds nuw i8, ptr %30, i64 104
  %32 = load ptr, ptr %31, align 8
  invoke void %32(ptr noundef nonnull align 8 dereferenceable(12) %28, ptr noundef nonnull align 8 dereferenceable(8) %1)
          to label %33 unwind label %36

33:                                               ; preds = %29
  call void @_ZN10params_refD1Ev(ptr noundef nonnull align 8 dereferenceable(8) %3) #22
  call void @llvm.lifetime.end.p0(i64 8, ptr nonnull %3) #22
  ret ptr %28

34:                                               ; preds = %2
  %35 = landingpad { ptr, i32 }
          cleanup
  br label %43

36:                                               ; preds = %6, %29, %13, %11, %9, %_ZL27mk_no_solve_eq_preprocessorR11ast_manager.exit
  %37 = landingpad { ptr, i32 }
          cleanup
  br label %43

38:                                               ; preds = %21, %19, %17, %15
  %39 = landingpad { ptr, i32 }
          cleanup
  br label %42

40:                                               ; preds = %27, %25, %23
  %41 = landingpad { ptr, i32 }
          cleanup
  call void @_ZN10params_refD1Ev(ptr noundef nonnull align 8 dereferenceable(8) %5) #22
  call void @llvm.lifetime.end.p0(i64 8, ptr nonnull %5) #22
  br label %42

42:                                               ; preds = %40, %38
  %.pn = phi { ptr, i32 } [ %41, %40 ], [ %39, %38 ]
  call void @_ZN10params_refD1Ev(ptr noundef nonnull align 8 dereferenceable(8) %4) #22
  call void @llvm.lifetime.end.p0(i64 8, ptr nonnull %4) #22
  br label %43

43:                                               ; preds = %36, %42, %34
  %.pn11.pn = phi { ptr, i32 } [ %35, %34 ], [ %37, %36 ], [ %.pn, %42 ]
  call void @_ZN10params_refD1Ev(ptr noundef nonnull align 8 dereferenceable(8) %3) #22
  call void @llvm.lifetime.end.p0(i64 8, ptr nonnull %3) #22
  resume { ptr, i32 } %.pn11.pn
}